
build/main.elf:     file format elf32-littleriscv
build/main.elf
architecture: riscv:rv32, flags 0x00000112:
EXEC_P, HAS_SYMS, D_PAGED
start address 0x00010018

Program Header:
    LOAD off    0x00001018 vaddr 0x00010018 paddr 0x00010018 align 2**12
         filesz 0x000002a4 memsz 0x000002a4 flags r-x

Sections:
Idx Name              Size      VMA       LMA       File off  Algn  Flags
  0 .text             000002a4  00010018  00010018  00001018  2**2  CONTENTS, ALLOC, LOAD, READONLY, CODE
  1 .riscv.attributes 00000020  00000000  00000000  000012bc  2**0  CONTENTS, READONLY
  2 .comment          00000012  00000000  00000000  000012dc  2**0  CONTENTS, READONLY
SYMBOL TABLE:
00010018 l    d  .text	00000000 .text
00000000 l    d  .riscv.attributes	00000000 .riscv.attributes
00000000 l    d  .comment	00000000 .comment
00000000 l    df *ABS*	00000000 build/start.o
00010024 l       .text	00000000 here
0001002c l       .text	00000000 _exception_entry
000100c0 l       .text	00000000 _exception_return
00000000 l    df *ABS*	00000000 main.c
00010264 g     F .text	00000030 led
00010018 g       .text	00000000 _start
00010144 g     F .text	00000120 main
00010294 g     F .text	00000028 exception_handler



Disassembly of section .text:

00010018 <_start>:
_start():
   10018:	00800137          	lui	sp,0x800
   1001c:	1fc10113          	addi	sp,sp,508 # 8001fc <exception_handler+0x7eff68>
   10020:	124000ef          	jal	ra,10144 <main>

00010024 <here>:
here():
   10024:	0000006f          	j	10024 <here>
   10028:	ffdff06f          	j	10024 <here>

0001002c <_exception_entry>:
_exception_entry():
   1002c:	f8010113          	addi	sp,sp,-128
   10030:	00012023          	sw	zero,0(sp)
   10034:	00112223          	sw	ra,4(sp)
   10038:	00212423          	sw	sp,8(sp)
   1003c:	00312623          	sw	gp,12(sp)
   10040:	00412823          	sw	tp,16(sp)
   10044:	00512a23          	sw	t0,20(sp)
   10048:	00612c23          	sw	t1,24(sp)
   1004c:	00712e23          	sw	t2,28(sp)
   10050:	02812023          	sw	s0,32(sp)
   10054:	02912223          	sw	s1,36(sp)
   10058:	02a12423          	sw	a0,40(sp)
   1005c:	02b12623          	sw	a1,44(sp)
   10060:	02c12823          	sw	a2,48(sp)
   10064:	02d12a23          	sw	a3,52(sp)
   10068:	02e12c23          	sw	a4,56(sp)
   1006c:	02f12e23          	sw	a5,60(sp)
   10070:	05012023          	sw	a6,64(sp)
   10074:	05112223          	sw	a7,68(sp)
   10078:	05212423          	sw	s2,72(sp)
   1007c:	05312623          	sw	s3,76(sp)
   10080:	05412823          	sw	s4,80(sp)
   10084:	05512a23          	sw	s5,84(sp)
   10088:	05612c23          	sw	s6,88(sp)
   1008c:	05712e23          	sw	s7,92(sp)
   10090:	07812023          	sw	s8,96(sp)
   10094:	07912223          	sw	s9,100(sp)
   10098:	07a12423          	sw	s10,104(sp)
   1009c:	07b12623          	sw	s11,108(sp)
   100a0:	07c12823          	sw	t3,112(sp)
   100a4:	07d12a23          	sw	t4,116(sp)
   100a8:	07e12c23          	sw	t5,120(sp)
   100ac:	07f12e23          	sw	t6,124(sp)
   100b0:	34202573          	csrr	a0,mcause
   100b4:	341025f3          	csrr	a1,mepc
   100b8:	00010613          	mv	a2,sp
   100bc:	1d8000ef          	jal	ra,10294 <exception_handler>

000100c0 <_exception_return>:
_exception_return():
   100c0:	00012003          	lw	zero,0(sp)
   100c4:	00412083          	lw	ra,4(sp)
   100c8:	00c12183          	lw	gp,12(sp)
   100cc:	01012203          	lw	tp,16(sp)
   100d0:	01412283          	lw	t0,20(sp)
   100d4:	01812303          	lw	t1,24(sp)
   100d8:	01c12383          	lw	t2,28(sp)
   100dc:	02012403          	lw	s0,32(sp)
   100e0:	02412483          	lw	s1,36(sp)
   100e4:	02812503          	lw	a0,40(sp)
   100e8:	02c12583          	lw	a1,44(sp)
   100ec:	03012603          	lw	a2,48(sp)
   100f0:	03412683          	lw	a3,52(sp)
   100f4:	03812703          	lw	a4,56(sp)
   100f8:	03c12783          	lw	a5,60(sp)
   100fc:	04012803          	lw	a6,64(sp)
   10100:	04412883          	lw	a7,68(sp)
   10104:	04812903          	lw	s2,72(sp)
   10108:	04c12983          	lw	s3,76(sp)
   1010c:	05012a03          	lw	s4,80(sp)
   10110:	05412a83          	lw	s5,84(sp)
   10114:	05812b03          	lw	s6,88(sp)
   10118:	05c12b83          	lw	s7,92(sp)
   1011c:	06012c03          	lw	s8,96(sp)
   10120:	06412c83          	lw	s9,100(sp)
   10124:	06812d03          	lw	s10,104(sp)
   10128:	06c12d83          	lw	s11,108(sp)
   1012c:	07012e03          	lw	t3,112(sp)
   10130:	07412e83          	lw	t4,116(sp)
   10134:	07812f03          	lw	t5,120(sp)
   10138:	07c12f83          	lw	t6,124(sp)
   1013c:	08010113          	addi	sp,sp,128
   10140:	30200073          	mret

00010144 <main>:
main():
   10144:	fc810113          	addi	sp,sp,-56
   10148:	02112a23          	sw	ra,52(sp)
   1014c:	02812823          	sw	s0,48(sp)
   10150:	02912623          	sw	s1,44(sp)
   10154:	03810413          	addi	s0,sp,56
   10158:	fc840793          	addi	a5,s0,-56
   1015c:	fef42023          	sw	a5,-32(s0)
   10160:	fcc40793          	addi	a5,s0,-52
   10164:	fcf42e23          	sw	a5,-36(s0)
   10168:	fd040793          	addi	a5,s0,-48
   1016c:	fcf42c23          	sw	a5,-40(s0)
   10170:	fe042783          	lw	a5,-32(s0)
   10174:	00500713          	li	a4,5
   10178:	00e7a023          	sw	a4,0(a5)
   1017c:	fdc42783          	lw	a5,-36(s0)
   10180:	ff600713          	li	a4,-10
   10184:	00e7a023          	sw	a4,0(a5)
   10188:	fe042783          	lw	a5,-32(s0)
   1018c:	0007a703          	lw	a4,0(a5)
   10190:	fdc42783          	lw	a5,-36(s0)
   10194:	0007a783          	lw	a5,0(a5)
   10198:	00f70733          	add	a4,a4,a5
   1019c:	fd842783          	lw	a5,-40(s0)
   101a0:	00e7a023          	sw	a4,0(a5)
   101a4:	001007b7          	lui	a5,0x100
   101a8:	00178793          	addi	a5,a5,1 # 100001 <exception_handler+0xefd6d>
   101ac:	fcf42a23          	sw	a5,-44(s0)
   101b0:	fd442783          	lw	a5,-44(s0)
   101b4:	08600713          	li	a4,134
   101b8:	00e7a023          	sw	a4,0(a5)
   101bc:	08600593          	li	a1,134
   101c0:	fd442503          	lw	a0,-44(s0)
   101c4:	0a0000ef          	jal	ra,10264 <led>
   101c8:	08600493          	li	s1,134
   101cc:	08400093          	li	ra,132
   101d0:	3044a073          	csrs	mie,s1
   101d4:	3040b073          	csrc	mie,ra
   101d8:	ff600793          	li	a5,-10
   101dc:	fef42623          	sw	a5,-20(s0)
   101e0:	0100006f          	j	101f0 <main+0xac>
   101e4:	fec42783          	lw	a5,-20(s0)
   101e8:	00178793          	addi	a5,a5,1
   101ec:	fef42623          	sw	a5,-20(s0)
   101f0:	fec42703          	lw	a4,-20(s0)
   101f4:	1f300793          	li	a5,499
   101f8:	fee7d6e3          	bge	a5,a4,101e4 <main+0xa0>
   101fc:	04500593          	li	a1,69
   10200:	fd442503          	lw	a0,-44(s0)
   10204:	060000ef          	jal	ra,10264 <led>
   10208:	fe042423          	sw	zero,-24(s0)
   1020c:	0100006f          	j	1021c <main+0xd8>
   10210:	fe842783          	lw	a5,-24(s0)
   10214:	00178793          	addi	a5,a5,1
   10218:	fef42423          	sw	a5,-24(s0)
   1021c:	fe842703          	lw	a4,-24(s0)
   10220:	2bb00793          	li	a5,699
   10224:	fee7d6e3          	bge	a5,a4,10210 <main+0xcc>
   10228:	07600593          	li	a1,118
   1022c:	fd442503          	lw	a0,-44(s0)
   10230:	034000ef          	jal	ra,10264 <led>
   10234:	fe042223          	sw	zero,-28(s0)
   10238:	0100006f          	j	10248 <main+0x104>
   1023c:	fe442783          	lw	a5,-28(s0)
   10240:	00178793          	addi	a5,a5,1
   10244:	fef42223          	sw	a5,-28(s0)
   10248:	fe442703          	lw	a4,-28(s0)
   1024c:	31f00793          	li	a5,799
   10250:	fee7d6e3          	bge	a5,a4,1023c <main+0xf8>
   10254:	0e300593          	li	a1,227
   10258:	fd442503          	lw	a0,-44(s0)
   1025c:	008000ef          	jal	ra,10264 <led>
   10260:	f79ff06f          	j	101d8 <main+0x94>

00010264 <led>:
led():
   10264:	ff010113          	addi	sp,sp,-16
   10268:	00812623          	sw	s0,12(sp)
   1026c:	01010413          	addi	s0,sp,16
   10270:	fea42a23          	sw	a0,-12(s0)
   10274:	feb42823          	sw	a1,-16(s0)
   10278:	ff442783          	lw	a5,-12(s0)
   1027c:	ff042703          	lw	a4,-16(s0)
   10280:	00e7a023          	sw	a4,0(a5)
   10284:	00000013          	nop
   10288:	00c12403          	lw	s0,12(sp)
   1028c:	01010113          	addi	sp,sp,16
   10290:	00008067          	ret

00010294 <exception_handler>:
exception_handler():
   10294:	fe810113          	addi	sp,sp,-24
   10298:	00812a23          	sw	s0,20(sp)
   1029c:	01810413          	addi	s0,sp,24
   102a0:	fea42a23          	sw	a0,-12(s0)
   102a4:	feb42823          	sw	a1,-16(s0)
   102a8:	fec42623          	sw	a2,-20(s0)
   102ac:	00000013          	nop
   102b0:	01412403          	lw	s0,20(sp)
   102b4:	01810113          	addi	sp,sp,24
   102b8:	00008067          	ret
